; ModuleID = 'source-C-CXX/10/784.c'
source_filename = "source-C-CXX/10/784.c"
target datalayout = "e-m:e-p270:32:32-p271:32:32-p272:64:64-i64:64-f80:128-n8:16:32:64-S128"
target triple = "x86_64-pc-linux-gnu"

%struct._IO_FILE = type { i32, i8*, i8*, i8*, i8*, i8*, i8*, i8*, i8*, i8*, i8*, i8*, %struct._IO_marker*, %struct._IO_FILE*, i32, i32, i64, i16, i8, [1 x i8], i8*, i64, %struct._IO_codecvt*, %struct._IO_wide_data*, %struct._IO_FILE*, i8*, i64, i32, [20 x i8] }
%struct._IO_marker = type opaque
%struct._IO_codecvt = type opaque
%struct._IO_wide_data = type opaque

@__const.main.a = private unnamed_addr constant [12 x i32] [i32 31, i32 0, i32 31, i32 30, i32 31, i32 30, i32 31, i32 31, i32 30, i32 31, i32 30, i32 31], align 16
@.str = private unnamed_addr constant [9 x i8] c"%d %d %d\00", align 1
@.str.1 = private unnamed_addr constant [3 x i8] c"%d\00", align 1
@stdin = external local_unnamed_addr global %struct._IO_FILE*, align 8

; Function Attrs: nofree nounwind sspstrong uwtable
define dso_local i32 @main() local_unnamed_addr #0 {
  %1 = alloca i32, align 4
  %2 = alloca i32, align 4
  %3 = alloca i32, align 4
  %4 = alloca [12 x i32], align 16
  %5 = bitcast i32* %1 to i8*
  call void @llvm.lifetime.start.p0i8(i64 4, i8* nonnull %5) #5
  %6 = bitcast i32* %2 to i8*
  call void @llvm.lifetime.start.p0i8(i64 4, i8* nonnull %6) #5
  %7 = bitcast i32* %3 to i8*
  call void @llvm.lifetime.start.p0i8(i64 4, i8* nonnull %7) #5
  %8 = bitcast [12 x i32]* %4 to i8*
  call void @llvm.lifetime.start.p0i8(i64 48, i8* nonnull %8) #5
  call void @llvm.memcpy.p0i8.p0i8.i64(i8* noundef nonnull align 16 dereferenceable(48) %8, i8* noundef nonnull align 16 dereferenceable(48) bitcast ([12 x i32]* @__const.main.a to i8*), i64 48, i1 false)
  %9 = call i32 (i8*, ...) @__isoc99_scanf(i8* getelementptr inbounds ([9 x i8], [9 x i8]* @.str, i64 0, i64 0), i32* nonnull %1, i32* nonnull %2, i32* nonnull %3)
  %10 = load i32, i32* %1, align 4, !tbaa !5
  %11 = and i32 %10, 3
  %12 = icmp eq i32 %11, 0
  %13 = srem i32 %10, 100
  %14 = icmp ne i32 %13, 0
  %15 = and i1 %12, %14
  %16 = srem i32 %10, 400
  %17 = icmp eq i32 %16, 0
  %18 = select i1 %15, i1 true, i1 %17
  %19 = select i1 %18, i32 29, i32 28
  %20 = getelementptr inbounds [12 x i32], [12 x i32]* %4, i64 0, i64 1
  store i32 %19, i32* %20, align 4
  %21 = load i32, i32* %2, align 4, !tbaa !5
  %22 = icmp sgt i32 %21, 0
  br i1 %22, label %23, label %122

23:                                               ; preds = %0
  %24 = add nsw i32 %21, -1
  %25 = zext i32 %21 to i64
  %26 = icmp ult i32 %21, 8
  br i1 %26, label %108, label %27

27:                                               ; preds = %23
  %28 = and i64 %25, 4294967288
  %29 = add nsw i64 %28, -8
  %30 = lshr exact i64 %29, 3
  %31 = add nuw nsw i64 %30, 1
  %32 = and i64 %31, 3
  %33 = icmp ult i64 %29, 24
  br i1 %33, label %79, label %34

34:                                               ; preds = %27
  %35 = and i64 %31, 4611686018427387900
  br label %36

36:                                               ; preds = %36, %34
  %37 = phi i64 [ 0, %34 ], [ %76, %36 ]
  %38 = phi <4 x i32> [ zeroinitializer, %34 ], [ %74, %36 ]
  %39 = phi <4 x i32> [ zeroinitializer, %34 ], [ %75, %36 ]
  %40 = phi i64 [ %35, %34 ], [ %77, %36 ]
  %41 = getelementptr inbounds [12 x i32], [12 x i32]* %4, i64 0, i64 %37
  %42 = bitcast i32* %41 to <4 x i32>*
  %43 = load <4 x i32>, <4 x i32>* %42, align 16, !tbaa !5
  %44 = getelementptr inbounds i32, i32* %41, i64 4
  %45 = bitcast i32* %44 to <4 x i32>*
  %46 = load <4 x i32>, <4 x i32>* %45, align 16, !tbaa !5
  %47 = add <4 x i32> %43, %38
  %48 = add <4 x i32> %46, %39
  %49 = or i64 %37, 8
  %50 = getelementptr inbounds [12 x i32], [12 x i32]* %4, i64 0, i64 %49
  %51 = bitcast i32* %50 to <4 x i32>*
  %52 = load <4 x i32>, <4 x i32>* %51, align 16, !tbaa !5
  %53 = getelementptr inbounds i32, i32* %50, i64 4
  %54 = bitcast i32* %53 to <4 x i32>*
  %55 = load <4 x i32>, <4 x i32>* %54, align 16, !tbaa !5
  %56 = add <4 x i32> %52, %47
  %57 = add <4 x i32> %55, %48
  %58 = or i64 %37, 16
  %59 = getelementptr inbounds [12 x i32], [12 x i32]* %4, i64 0, i64 %58
  %60 = bitcast i32* %59 to <4 x i32>*
  %61 = load <4 x i32>, <4 x i32>* %60, align 16, !tbaa !5
  %62 = getelementptr inbounds i32, i32* %59, i64 4
  %63 = bitcast i32* %62 to <4 x i32>*
  %64 = load <4 x i32>, <4 x i32>* %63, align 16, !tbaa !5
  %65 = add <4 x i32> %61, %56
  %66 = add <4 x i32> %64, %57
  %67 = or i64 %37, 24
  %68 = getelementptr inbounds [12 x i32], [12 x i32]* %4, i64 0, i64 %67
  %69 = bitcast i32* %68 to <4 x i32>*
  %70 = load <4 x i32>, <4 x i32>* %69, align 16, !tbaa !5
  %71 = getelementptr inbounds i32, i32* %68, i64 4
  %72 = bitcast i32* %71 to <4 x i32>*
  %73 = load <4 x i32>, <4 x i32>* %72, align 16, !tbaa !5
  %74 = add <4 x i32> %70, %65
  %75 = add <4 x i32> %73, %66
  %76 = add nuw i64 %37, 32
  %77 = add i64 %40, -4
  %78 = icmp eq i64 %77, 0
  br i1 %78, label %79, label %36, !llvm.loop !9

79:                                               ; preds = %36, %27
  %80 = phi <4 x i32> [ undef, %27 ], [ %74, %36 ]
  %81 = phi <4 x i32> [ undef, %27 ], [ %75, %36 ]
  %82 = phi i64 [ 0, %27 ], [ %76, %36 ]
  %83 = phi <4 x i32> [ zeroinitializer, %27 ], [ %74, %36 ]
  %84 = phi <4 x i32> [ zeroinitializer, %27 ], [ %75, %36 ]
  %85 = icmp eq i64 %32, 0
  br i1 %85, label %102, label %86

86:                                               ; preds = %79, %86
  %87 = phi i64 [ %99, %86 ], [ %82, %79 ]
  %88 = phi <4 x i32> [ %97, %86 ], [ %83, %79 ]
  %89 = phi <4 x i32> [ %98, %86 ], [ %84, %79 ]
  %90 = phi i64 [ %100, %86 ], [ %32, %79 ]
  %91 = getelementptr inbounds [12 x i32], [12 x i32]* %4, i64 0, i64 %87
  %92 = bitcast i32* %91 to <4 x i32>*
  %93 = load <4 x i32>, <4 x i32>* %92, align 16, !tbaa !5
  %94 = getelementptr inbounds i32, i32* %91, i64 4
  %95 = bitcast i32* %94 to <4 x i32>*
  %96 = load <4 x i32>, <4 x i32>* %95, align 16, !tbaa !5
  %97 = add <4 x i32> %93, %88
  %98 = add <4 x i32> %96, %89
  %99 = add nuw i64 %87, 8
  %100 = add i64 %90, -1
  %101 = icmp eq i64 %100, 0
  br i1 %101, label %102, label %86, !llvm.loop !12

102:                                              ; preds = %86, %79
  %103 = phi <4 x i32> [ %80, %79 ], [ %97, %86 ]
  %104 = phi <4 x i32> [ %81, %79 ], [ %98, %86 ]
  %105 = add <4 x i32> %104, %103
  %106 = call i32 @llvm.vector.reduce.add.v4i32(<4 x i32> %105)
  %107 = icmp eq i64 %28, %25
  br i1 %107, label %119, label %108

108:                                              ; preds = %23, %102
  %109 = phi i64 [ 0, %23 ], [ %28, %102 ]
  %110 = phi i32 [ 0, %23 ], [ %106, %102 ]
  br label %111

111:                                              ; preds = %108, %111
  %112 = phi i64 [ %117, %111 ], [ %109, %108 ]
  %113 = phi i32 [ %116, %111 ], [ %110, %108 ]
  %114 = getelementptr inbounds [12 x i32], [12 x i32]* %4, i64 0, i64 %112
  %115 = load i32, i32* %114, align 4, !tbaa !5
  %116 = add nsw i32 %115, %113
  %117 = add nuw nsw i64 %112, 1
  %118 = icmp eq i64 %117, %25
  br i1 %118, label %119, label %111, !llvm.loop !14

119:                                              ; preds = %111, %102
  %120 = phi i32 [ %106, %102 ], [ %116, %111 ]
  %121 = sext i32 %24 to i64
  br label %122

122:                                              ; preds = %119, %0
  %123 = phi i64 [ -1, %0 ], [ %121, %119 ]
  %124 = phi i32 [ 0, %0 ], [ %120, %119 ]
  %125 = getelementptr inbounds [12 x i32], [12 x i32]* %4, i64 0, i64 %123
  %126 = load i32, i32* %125, align 4, !tbaa !5
  %127 = sub i32 %124, %126
  %128 = load i32, i32* %3, align 4, !tbaa !5
  %129 = add nsw i32 %127, %128
  %130 = call i32 (i8*, ...) @printf(i8* nonnull dereferenceable(1) getelementptr inbounds ([3 x i8], [3 x i8]* @.str.1, i64 0, i64 0), i32 %129)
  %131 = load %struct._IO_FILE*, %struct._IO_FILE** @stdin, align 8, !tbaa !16
  %132 = call i32 @getc(%struct._IO_FILE* %131) #5
  %133 = load %struct._IO_FILE*, %struct._IO_FILE** @stdin, align 8, !tbaa !16
  %134 = call i32 @getc(%struct._IO_FILE* %133) #5
  call void @llvm.lifetime.end.p0i8(i64 48, i8* nonnull %8) #5
  call void @llvm.lifetime.end.p0i8(i64 4, i8* nonnull %7) #5
  call void @llvm.lifetime.end.p0i8(i64 4, i8* nonnull %6) #5
  call void @llvm.lifetime.end.p0i8(i64 4, i8* nonnull %5) #5
  ret i32 0
}

; Function Attrs: argmemonly mustprogress nofree nosync nounwind willreturn
declare void @llvm.lifetime.start.p0i8(i64 immarg, i8* nocapture) #1

; Function Attrs: argmemonly mustprogress nofree nounwind willreturn
declare void @llvm.memcpy.p0i8.p0i8.i64(i8* noalias nocapture writeonly, i8* noalias nocapture readonly, i64, i1 immarg) #2

; Function Attrs: nofree nounwind
declare noundef i32 @__isoc99_scanf(i8* nocapture noundef readonly, ...) local_unnamed_addr #3

; Function Attrs: nofree nounwind
declare noundef i32 @printf(i8* nocapture noundef readonly, ...) local_unnamed_addr #3

; Function Attrs: argmemonly mustprogress nofree nosync nounwind willreturn
declare void @llvm.lifetime.end.p0i8(i64 immarg, i8* nocapture) #1

; Function Attrs: nofree nounwind
declare noundef i32 @getc(%struct._IO_FILE* nocapture noundef) local_unnamed_addr #3

; Function Attrs: nofree nosync nounwind readnone willreturn
declare i32 @llvm.vector.reduce.add.v4i32(<4 x i32>) #4


!llvm.module.flags = !{!0, !1, !2, !3}
!llvm.ident = !{!4}

!0 = !{i32 1, !"wchar_size", i32 4}
!1 = !{i32 7, !"PIC Level", i32 2}
!2 = !{i32 7, !"PIE Level", i32 2}
!3 = !{i32 7, !"uwtable", i32 1}
!4 = !{!"clang version 13.0.0"}
!5 = !{!6, !6, i64 0}
!6 = !{!"int", !7, i64 0}
!7 = !{!"omnipotent char", !8, i64 0}
!8 = !{!"Simple C/C++ TBAA"}
!9 = distinct !{!9, !10, !11}
!10 = !{!"llvm.loop.mustprogress"}
!11 = !{!"llvm.loop.isvectorized", i32 1}
!12 = distinct !{!12, !13}
!13 = !{!"llvm.loop.unroll.disable"}
!14 = distinct !{!14, !10, !15, !11}
!15 = !{!"llvm.loop.unroll.runtime.disable"}
!16 = !{!17, !17, i64 0}
!17 = !{!"any pointer", !7, i64 0}
